(dp0
S'_AgentService:AgentInfo'
p1
(dp2
S'com.plexapp.agents.fanarttv'
p3
(lp4
(dp5
S'media_types'
p6
(lp7
S'Movie'
p8
asS'accepts_from'
p9
NsS'fallback_agent'
p10
NsS'contributes_to'
p11
(lp12
S'com.plexapp.agents.imdb'
p13
aS'com.plexapp.agents.themoviedb'
p14
asS'has_attribution'
p15
I01
sS'languages'
p16
(lp17
S'xn'
p18
asS'persist_stored_files'
p19
I01
sS'version'
p20
I0
sS'primary_provider'
p21
I00
sS'prefs'
p22
I01
sS'name'
p23
S'Fanart.tv'
p24
sa(dp25
S'media_types'
p26
(lp27
S'TV_Show'
p28
asS'accepts_from'
p29
NsS'fallback_agent'
p30
NsS'contributes_to'
p31
(lp32
S'com.plexapp.agents.thetvdb'
p33
aS'com.plexapp.agents.themoviedb'
p34
asg15
I01
sS'languages'
p35
(lp36
S'xn'
p37
asS'persist_stored_files'
p38
I01
sS'version'
p39
I0
sS'primary_provider'
p40
I00
sS'prefs'
p41
I01
sS'name'
p42
S'Fanart.tv'
p43
sa(dp44
S'media_types'
p45
(lp46
S'Artist'
p47
asS'accepts_from'
p48
NsS'fallback_agent'
p49
NsS'contributes_to'
p50
(lp51
S'com.plexapp.agents.lastfm'
p52
asg15
I01
sS'languages'
p53
(lp54
S'xn'
p55
asS'persist_stored_files'
p56
I01
sS'version'
p57
I0
sS'primary_provider'
p58
I00
sS'prefs'
p59
I01
sS'name'
p60
S'Fanart.tv'
p61
sa(dp62
S'media_types'
p63
(lp64
S'Album'
p65
asS'accepts_from'
p66
NsS'fallback_agent'
p67
NsS'contributes_to'
p68
(lp69
S'com.plexapp.agents.lastfm'
p70
asg15
I01
sS'languages'
p71
(lp72
S'xn'
p73
asS'persist_stored_files'
p74
I01
sS'version'
p75
I0
sS'primary_provider'
p76
I00
sS'prefs'
p77
I01
sS'name'
p78
S'Fanart.tv'
p79
sasS'com.plexapp.agents.none'
p80
(lp81
(dp82
S'media_types'
p83
(lp84
S'Movie'
p85
asS'accepts_from'
p86
NsS'fallback_agent'
p87
NsS'contributes_to'
p88
Nsg15
I00
sS'languages'
p89
(lp90
S'xn'
p91
asS'persist_stored_files'
p92
I01
sS'version'
p93
I0
sS'primary_provider'
p94
I01
sS'prefs'
p95
I00
sS'name'
p96
S'Personal Media'
p97
sa(dp98
S'media_types'
p99
(lp100
S'TV_Show'
p101
asS'accepts_from'
p102
NsS'fallback_agent'
p103
NsS'contributes_to'
p104
Nsg15
I00
sS'languages'
p105
(lp106
S'xn'
p107
asS'persist_stored_files'
p108
I01
sS'version'
p109
I0
sS'primary_provider'
p110
I01
sS'prefs'
p111
I00
sS'name'
p112
S'Personal Media Shows'
p113
sa(dp114
S'media_types'
p115
(lp116
S'Artist'
p117
asS'accepts_from'
p118
NsS'fallback_agent'
p119
NsS'contributes_to'
p120
Nsg15
I00
sS'languages'
p121
(lp122
S'xn'
p123
asS'persist_stored_files'
p124
I01
sS'version'
p125
I0
sS'primary_provider'
p126
I01
sS'prefs'
p127
I00
sS'name'
p128
S'Personal Media Artists'
p129
sa(dp130
S'media_types'
p131
(lp132
S'Album'
p133
asS'accepts_from'
p134
NsS'fallback_agent'
p135
NsS'contributes_to'
p136
Nsg15
I00
sS'languages'
p137
(lp138
S'xn'
p139
asS'persist_stored_files'
p140
I01
sS'version'
p141
I0
sS'primary_provider'
p142
I01
sS'prefs'
p143
I00
sS'name'
p144
S'Personal Media Albums'
p145
sa(dp146
S'media_types'
p147
(lp148
S'Photo'
p149
asS'accepts_from'
p150
NsS'fallback_agent'
p151
NsS'contributes_to'
p152
Nsg15
I00
sS'languages'
p153
(lp154
S'en'
p155
aS'ar'
p156
aS'bg'
p157
aS'ca'
p158
aS'cs'
p159
aS'cy'
p160
aS'da'
p161
aS'de'
p162
aS'el'
p163
aS'es'
p164
aS'et'
p165
aS'fa'
p166
aS'fi'
p167
aS'fr'
p168
aS'he'
p169
aS'hi'
p170
aS'hr'
p171
aS'ht'
p172
aS'hu'
p173
aS'id'
p174
aS'it'
p175
aS'ja'
p176
aS'ko'
p177
aS'lt'
p178
aS'lv'
p179
aS'ms'
p180
aS'mt'
p181
aS'nl'
p182
aS'no'
p183
aS'pl'
p184
aS'pt'
p185
aS'ro'
p186
aS'ru'
p187
aS'sk'
p188
aS'sv'
p189
aS'sl'
p190
aS'sr'
p191
aS'th'
p192
aS'tr'
p193
aS'uk'
p194
aS'ur'
p195
aS'vi'
p196
aS'zh'
p197
aS'xn'
p198
asS'persist_stored_files'
p199
I01
sS'version'
p200
I0
sS'primary_provider'
p201
I01
sS'prefs'
p202
I00
sS'name'
p203
S'Photos'
p204
sasS'tv.plex.agents.music'
p205
(lp206
(dp207
S'media_types'
p208
(lp209
S'Artist'
p210
asS'accepts_from'
p211
NsS'fallback_agent'
p212
NsS'contributes_to'
p213
Nsg15
I01
sS'languages'
p214
(lp215
S'en'
p216
aS'ar'
p217
aS'bg'
p218
aS'zh'
p219
aS'hr'
p220
aS'cs'
p221
aS'da'
p222
aS'nl'
p223
aS'fi'
p224
aS'fr'
p225
aS'de'
p226
aS'el'
p227
aS'hu'
p228
aS'id'
p229
aS'it'
p230
aS'ja'
p231
aS'ko'
p232
aS'nn'
p233
aS'pl'
p234
aS'pt'
p235
aS'ro'
p236
aS'ru'
p237
aS'sr'
p238
aS'sk'
p239
aS'es'
p240
aS'sv'
p241
aS'th'
p242
aS'tr'
p243
aS'vi'
p244
aS'xx'
p245
asS'persist_stored_files'
p246
I01
sS'version'
p247
I0
sS'primary_provider'
p248
I01
sS'prefs'
p249
I01
sS'name'
p250
S'Plex Music'
p251
sa(dp252
S'media_types'
p253
(lp254
S'Album'
p255
asS'accepts_from'
p256
NsS'fallback_agent'
p257
NsS'contributes_to'
p258
Nsg15
I01
sS'languages'
p259
g215
sS'persist_stored_files'
p260
I01
sS'version'
p261
I0
sS'primary_provider'
p262
I01
sS'prefs'
p263
I01
sS'name'
p264
S'Plex Music'
p265
sasS'com.plexapp.agents.opensubtitles'
p266
(lp267
(dp268
S'media_types'
p269
(lp270
S'Movie'
p271
asS'accepts_from'
p272
NsS'fallback_agent'
p273
NsS'contributes_to'
p274
(lp275
S'com.plexapp.agents.imdb'
p276
asg15
I00
sS'languages'
p277
(lp278
S'xn'
p279
asS'persist_stored_files'
p280
I01
sS'version'
p281
I0
sS'primary_provider'
p282
I00
sS'prefs'
p283
I01
sS'name'
p284
S'OpenSubtitles.org'
p285
sa(dp286
S'media_types'
p287
(lp288
S'TV_Show'
p289
asS'accepts_from'
p290
NsS'fallback_agent'
p291
NsS'contributes_to'
p292
(lp293
S'com.plexapp.agents.thetvdb'
p294
asg15
I00
sS'languages'
p295
(lp296
S'xn'
p297
asS'persist_stored_files'
p298
I01
sS'version'
p299
I0
sS'primary_provider'
p300
I00
sS'prefs'
p301
I01
sS'name'
p302
S'OpenSubtitles.org'
p303
sasS'com.plexapp.agents.imdb'
p304
(lp305
(dp306
S'media_types'
p307
(lp308
S'Movie'
p309
asS'primary_provider'
p310
I01
sS'fallback_agent'
p311
NsS'contributes_to'
p312
(lp313
S'com.plexapp.agents.themoviedb'
p314
asS'has_attribution'
p315
I01
sS'languages'
p316
(lp317
S'en'
p318
aS'sv'
p319
aS'fr'
p320
aS'es'
p321
aS'nl'
p322
aS'de'
p323
aS'it'
p324
aS'da'
p325
aS'ar'
p326
aS'ca'
p327
aS'zh'
p328
aS'cs'
p329
aS'et'
p330
aS'fi'
p331
aS'el'
p332
aS'he'
p333
aS'hi'
p334
aS'hu'
p335
aS'id'
p336
aS'ja'
p337
aS'ko'
p338
aS'lv'
p339
aS'no'
p340
aS'fa'
p341
aS'pl'
p342
aS'pt'
p343
aS'ro'
p344
aS'ru'
p345
aS'sk'
p346
aS'th'
p347
aS'tr'
p348
aS'uk'
p349
aS'vi'
p350
asS'persist_stored_files'
p351
I01
sS'version'
p352
I0
sS'accepts_from'
p353
(lp354
S'com.plexapp.agents.localmedia'
p355
asS'prefs'
p356
I01
sS'name'
p357
S'Plex Movie'
p358
sasS'com.plexapp.agents.lyricfind'
p359
(lp360
(dp361
S'media_types'
p362
(lp363
S'Album'
p364
asS'accepts_from'
p365
NsS'fallback_agent'
p366
NsS'contributes_to'
p367
(lp368
S'com.plexapp.agents.lastfm'
p369
aS'tv.plex.agents.music'
p370
aS'org.musicbrainz.agents.music'
p371
asg15
I01
sS'languages'
p372
(lp373
S'xn'
p374
asS'persist_stored_files'
p375
I01
sS'version'
p376
I0
sS'primary_provider'
p377
I00
sS'prefs'
p378
I00
sS'name'
p379
S'LyricFind'
p380
sasS'com.plexapp.agents.thetvdb'
p381
(lp382
(dp383
S'media_types'
p384
(lp385
S'TV_Show'
p386
asS'primary_provider'
p387
I01
sS'fallback_agent'
p388
NsS'contributes_to'
p389
NsS'has_attribution'
p390
I01
sS'languages'
p391
(lp392
S'en'
p393
aS'fr'
p394
aS'zh'
p395
aS'sv'
p396
aS'no'
p397
aS'da'
p398
aS'fi'
p399
aS'nl'
p400
aS'de'
p401
aS'it'
p402
aS'es'
p403
aS'pl'
p404
aS'hu'
p405
aS'el'
p406
aS'tr'
p407
aS'ru'
p408
aS'he'
p409
aS'ja'
p410
aS'pt'
p411
aS'cs'
p412
aS'ko'
p413
aS'sl'
p414
aS'hr'
p415
asS'persist_stored_files'
p416
I01
sS'version'
p417
I0
sS'accepts_from'
p418
NsS'prefs'
p419
I01
sS'name'
p420
S'TheTVDB'
p421
sasS'tv.plex.agents.movie'
p422
(lp423
(dp424
S'media_types'
p425
(lp426
S'Movie'
p427
asS'accepts_from'
p428
NsS'fallback_agent'
p429
NsS'contributes_to'
p430
Nsg15
I01
sS'languages'
p431
(lp432
sS'persist_stored_files'
p433
I01
sS'version'
p434
I0
sS'primary_provider'
p435
I01
sS'prefs'
p436
I01
sS'name'
p437
S'Plex Movie'
p438
sasS'tv.plex.agents.series'
p439
(lp440
(dp441
S'media_types'
p442
(lp443
S'TV_Show'
p444
asS'accepts_from'
p445
NsS'fallback_agent'
p446
NsS'contributes_to'
p447
Nsg15
I01
sS'languages'
p448
(lp449
sS'persist_stored_files'
p450
I01
sS'version'
p451
I0
sS'primary_provider'
p452
I01
sS'prefs'
p453
I01
sS'name'
p454
S'Plex TV Series'
p455
sasS'com.plexapp.agents.lastfm'
p456
(lp457
(dp458
S'media_types'
p459
(lp460
S'Artist'
p461
asS'accepts_from'
p462
NsS'fallback_agent'
p463
NsS'contributes_to'
p464
Nsg15
I01
sS'languages'
p465
(lp466
S'en'
p467
aS'sv'
p468
aS'fr'
p469
aS'es'
p470
aS'de'
p471
aS'pl'
p472
aS'it'
p473
aS'pt'
p474
aS'ja'
p475
aS'tr'
p476
aS'ru'
p477
aS'zh'
p478
asS'persist_stored_files'
p479
I01
sS'version'
p480
I0
sS'primary_provider'
p481
I01
sS'prefs'
p482
I01
sS'name'
p483
S'Last.fm'
p484
sa(dp485
S'media_types'
p486
(lp487
S'Album'
p488
asS'accepts_from'
p489
NsS'fallback_agent'
p490
NsS'contributes_to'
p491
Nsg15
I01
sS'languages'
p492
(lp493
S'en'
p494
aS'sv'
p495
aS'fr'
p496
aS'es'
p497
aS'de'
p498
aS'pl'
p499
aS'it'
p500
aS'pt'
p501
aS'ja'
p502
aS'tr'
p503
aS'ru'
p504
aS'zh'
p505
asS'persist_stored_files'
p506
I01
sS'version'
p507
I0
sS'primary_provider'
p508
I01
sS'prefs'
p509
I01
sS'name'
p510
S'Last.fm'
p511
sasS'org.musicbrainz.agents.music'
p512
(lp513
(dp514
S'media_types'
p515
(lp516
S'Artist'
p517
asS'accepts_from'
p518
NsS'fallback_agent'
p519
NsS'contributes_to'
p520
Nsg15
I01
sS'languages'
p521
(lp522
S'en'
p523
aS'ar'
p524
aS'bg'
p525
aS'zh'
p526
aS'hr'
p527
aS'cs'
p528
aS'da'
p529
aS'nl'
p530
aS'fi'
p531
aS'fr'
p532
aS'de'
p533
aS'el'
p534
aS'hu'
p535
aS'id'
p536
aS'it'
p537
aS'ja'
p538
aS'ko'
p539
aS'nn'
p540
aS'pl'
p541
aS'pt'
p542
aS'ro'
p543
aS'ru'
p544
aS'sr'
p545
aS'sk'
p546
aS'es'
p547
aS'sv'
p548
aS'th'
p549
aS'tr'
p550
aS'vi'
p551
aS'xx'
p552
asS'persist_stored_files'
p553
I01
sS'version'
p554
I0
sS'primary_provider'
p555
I01
sS'prefs'
p556
I01
sS'name'
p557
S'Musicbrainz'
p558
sa(dp559
S'media_types'
p560
(lp561
S'Album'
p562
asS'accepts_from'
p563
NsS'fallback_agent'
p564
NsS'contributes_to'
p565
Nsg15
I01
sS'languages'
p566
g522
sS'persist_stored_files'
p567
I01
sS'version'
p568
I0
sS'primary_provider'
p569
I01
sS'prefs'
p570
I01
sS'name'
p571
S'Musicbrainz'
p572
sasS'com.plexapp.agents.themoviedb'
p573
(lp574
(dp575
S'media_types'
p576
(lp577
S'Movie'
p578
asS'accepts_from'
p579
(lp580
S'com.plexapp.agents.localmedia'
p581
asS'fallback_agent'
p582
NsS'contributes_to'
p583
Nsg15
I01
sS'languages'
p584
(lp585
S'en'
p586
aS'cs'
p587
aS'da'
p588
aS'de'
p589
aS'el'
p590
aS'es'
p591
aS'fi'
p592
aS'fr'
p593
aS'he'
p594
aS'hr'
p595
aS'hu'
p596
aS'it'
p597
aS'lv'
p598
aS'lt'
p599
aS'nl'
p600
aS'no'
p601
aS'pl'
p602
aS'pt'
p603
aS'ru'
p604
aS'sk'
p605
aS'sv'
p606
aS'th'
p607
aS'tr'
p608
aS'vi'
p609
aS'zh'
p610
aS'ko'
p611
asS'persist_stored_files'
p612
I01
sS'version'
p613
I0
sS'primary_provider'
p614
I01
sS'prefs'
p615
I01
sS'name'
p616
S'The Movie Database'
p617
sa(dp618
S'media_types'
p619
(lp620
S'TV_Show'
p621
asS'accepts_from'
p622
(lp623
S'com.plexapp.agents.localmedia'
p624
aS'com.plexapp.agents.thetvdb'
p625
asS'fallback_agent'
p626
NsS'contributes_to'
p627
(lp628
S'com.plexapp.agents.thetvdb'
p629
asg15
I01
sS'languages'
p630
g585
sS'persist_stored_files'
p631
I01
sS'version'
p632
I0
sS'primary_provider'
p633
I01
sS'prefs'
p634
I01
sS'name'
p635
S'The Movie Database'
p636
sasS'com.plexapp.agents.localmedia'
p637
(lp638
(dp639
S'media_types'
p640
(lp641
S'Movie'
p642
asS'accepts_from'
p643
NsS'fallback_agent'
p644
NsS'contributes_to'
p645
(lp646
S'com.plexapp.agents.imdb'
p647
aS'com.plexapp.agents.none'
p648
asg15
I00
sS'languages'
p649
(lp650
S'xn'
p651
asS'persist_stored_files'
p652
I00
sS'version'
p653
I0
sS'primary_provider'
p654
I00
sS'prefs'
p655
I01
sS'name'
p656
S'Local Media Assets (Movies)'
p657
sa(dp658
S'media_types'
p659
(lp660
S'TV_Show'
p661
asS'accepts_from'
p662
NsS'fallback_agent'
p663
NsS'contributes_to'
p664
(lp665
S'com.plexapp.agents.thetvdb'
p666
aS'com.plexapp.agents.none'
p667
asg15
I00
sS'languages'
p668
(lp669
S'xn'
p670
asS'persist_stored_files'
p671
I00
sS'version'
p672
I0
sS'primary_provider'
p673
I00
sS'prefs'
p674
I01
sS'name'
p675
S'Local Media Assets (TV)'
p676
sa(dp677
S'media_types'
p678
(lp679
S'Artist'
p680
asS'accepts_from'
p681
NsS'fallback_agent'
p682
NsS'contributes_to'
p683
(lp684
S'com.plexapp.agents.discogs'
p685
aS'com.plexapp.agents.lastfm'
p686
aS'com.plexapp.agents.plexmusic'
p687
aS'com.plexapp.agents.none'
p688
aS'tv.plex.agents.music'
p689
aS'org.musicbrainz.agents.music'
p690
asg15
I00
sS'languages'
p691
(lp692
S'xn'
p693
asS'persist_stored_files'
p694
I00
sS'version'
p695
I0
sS'primary_provider'
p696
I00
sS'prefs'
p697
I01
sS'name'
p698
S'Local Media Assets (Artists)'
p699
sa(dp700
S'media_types'
p701
(lp702
S'Artist'
p703
asS'accepts_from'
p704
NsS'fallback_agent'
p705
NsS'contributes_to'
p706
(lp707
S'com.plexapp.agents.plexmusic'
p708
asg15
I00
sS'languages'
p709
g692
sS'persist_stored_files'
p710
I00
sS'version'
p711
I2
sS'primary_provider'
p712
I00
sS'prefs'
p713
I01
sS'name'
p714
S'Local Media Assets (Artists)'
p715
sa(dp716
S'media_types'
p717
(lp718
S'Album'
p719
asS'accepts_from'
p720
NsS'fallback_agent'
p721
NsS'contributes_to'
p722
(lp723
S'com.plexapp.agents.discogs'
p724
aS'com.plexapp.agents.lastfm'
p725
aS'com.plexapp.agents.plexmusic'
p726
aS'com.plexapp.agents.none'
p727
aS'tv.plex.agents.music'
p728
aS'org.musicbrainz.agents.music'
p729
asg15
I00
sS'languages'
p730
(lp731
S'xn'
p732
asS'persist_stored_files'
p733
I00
sS'version'
p734
I0
sS'primary_provider'
p735
I00
sS'prefs'
p736
I01
sS'name'
p737
S'Local Media Assets (Albums)'
p738
sasS'com.plexapp.agents.movieposterdb'
p739
(lp740
(dp741
S'media_types'
p742
(lp743
S'Movie'
p744
asS'accepts_from'
p745
NsS'fallback_agent'
p746
NsS'contributes_to'
p747
(lp748
S'com.plexapp.agents.imdb'
p749
asg15
I01
sS'languages'
p750
(lp751
S'xn'
p752
asS'persist_stored_files'
p753
I01
sS'version'
p754
I0
sS'primary_provider'
p755
I00
sS'prefs'
p756
I00
sS'name'
p757
S'CineMaterial'
p758
sasS'com.plexapp.agents.htbackdrops'
p759
(lp760
(dp761
S'media_types'
p762
(lp763
S'Artist'
p764
asS'accepts_from'
p765
NsS'fallback_agent'
p766
NsS'contributes_to'
p767
(lp768
S'com.plexapp.agents.lastfm'
p769
asg15
I01
sS'languages'
p770
(lp771
S'ab'
p772
aS'aa'
p773
aS'af'
p774
aS'ak'
p775
aS'sq'
p776
aS'am'
p777
aS'ar'
p778
aS'an'
p779
aS'hy'
p780
aS'as'
p781
aS'av'
p782
aS'ae'
p783
aS'ay'
p784
aS'az'
p785
aS'bm'
p786
aS'ba'
p787
aS'eu'
p788
aS'be'
p789
aS'bn'
p790
aS'bh'
p791
aS'bi'
p792
aS'bs'
p793
aS'pb'
p794
aS'br'
p795
aS'bg'
p796
aS'my'
p797
aS'ca'
p798
aS'ch'
p799
aS'ce'
p800
aS'ny'
p801
aS'zh'
p802
aS'cu'
p803
aS'cv'
p804
aS'kw'
p805
aS'co'
p806
aS'cr'
p807
aS'hr'
p808
aS'cs'
p809
aS'da'
p810
aS'dv'
p811
aS'nl'
p812
aS'dz'
p813
aS'en'
p814
aS'eo'
p815
aS'et'
p816
aS'ee'
p817
aS'fo'
p818
aS'fj'
p819
aS'fi'
p820
aS'fr'
p821
aS'fy'
p822
aS'ff'
p823
aS'gd'
p824
aS'gl'
p825
aS'lg'
p826
aS'ka'
p827
aS'de'
p828
aS'el'
p829
aS'gn'
p830
aS'gu'
p831
aS'ht'
p832
aS'ha'
p833
aS'he'
p834
aS'hz'
p835
aS'hi'
p836
aS'ho'
p837
aS'hu'
p838
aS'is'
p839
aS'io'
p840
aS'ig'
p841
aS'id'
p842
aS'ia'
p843
aS'ie'
p844
aS'iu'
p845
aS'ik'
p846
aS'ga'
p847
aS'it'
p848
aS'ja'
p849
aS'jv'
p850
aS'kl'
p851
aS'kn'
p852
aS'kr'
p853
aS'ks'
p854
aS'kk'
p855
aS'km'
p856
aS'ki'
p857
aS'rw'
p858
aS'ky'
p859
aS'kv'
p860
aS'kg'
p861
aS'ko'
p862
aS'kj'
p863
aS'ku'
p864
aS'lo'
p865
aS'la'
p866
aS'lv'
p867
aS'li'
p868
aS'ln'
p869
aS'lt'
p870
aS'lu'
p871
aS'lb'
p872
aS'mk'
p873
aS'mg'
p874
aS'ms'
p875
aS'ml'
p876
aS'mt'
p877
aS'gv'
p878
aS'mi'
p879
aS'mr'
p880
aS'mh'
p881
aS'mo'
p882
aS'mn'
p883
aS'na'
p884
aS'nv'
p885
aS'ng'
p886
aS'ne'
p887
aS'xn'
p888
aS'nd'
p889
aS'no'
p890
aS'nb'
p891
aS'nn'
p892
aS'oc'
p893
aS'oj'
p894
aS'or'
p895
aS'om'
p896
aS'os'
p897
aS'pi'
p898
aS'pa'
p899
aS'fa'
p900
aS'pl'
p901
aS'pt'
p902
aS'ps'
p903
aS'qu'
p904
aS'rm'
p905
aS'ro'
p906
aS'rn'
p907
aS'ru'
p908
aS'se'
p909
aS'sm'
p910
aS'sg'
p911
aS'sa'
p912
aS'sc'
p913
aS'sr'
p914
aS'sn'
p915
aS'ii'
p916
aS'sd'
p917
aS'si'
p918
aS'sk'
p919
aS'sl'
p920
aS'so'
p921
aS'st'
p922
aS'nr'
p923
aS'es'
p924
aS'su'
p925
aS'sw'
p926
aS'ss'
p927
aS'sv'
p928
aS'tl'
p929
aS'ty'
p930
aS'tg'
p931
aS'ta'
p932
aS'tt'
p933
aS'te'
p934
aS'th'
p935
aS'bo'
p936
aS'ti'
p937
aS'to'
p938
aS'ts'
p939
aS'tn'
p940
aS'tr'
p941
aS'tk'
p942
aS'tw'
p943
aS'ug'
p944
aS'uk'
p945
aS'ur'
p946
aS'uz'
p947
aS've'
p948
aS'vi'
p949
aS'vo'
p950
aS'wa'
p951
aS'cy'
p952
aS'wo'
p953
aS'xh'
p954
aS'yi'
p955
aS'yo'
p956
aS'za'
p957
aS'zu'
p958
asS'persist_stored_files'
p959
I01
sS'version'
p960
I0
sS'primary_provider'
p961
I00
sS'prefs'
p962
I00
sS'name'
p963
S'Home Theater Backdrops'
p964
sasS'com.plexapp.agents.plexthememusic'
p965
(lp966
(dp967
S'media_types'
p968
(lp969
S'TV_Show'
p970
asS'accepts_from'
p971
NsS'fallback_agent'
p972
NsS'contributes_to'
p973
(lp974
S'com.plexapp.agents.thetvdb'
p975
aS'com.plexapp.agents.thetvdbdvdorder'
p976
aS'com.plexapp.agents.themoviedb'
p977
asg15
I00
sS'languages'
p978
(lp979
S'xn'
p980
asS'persist_stored_files'
p981
I01
sS'version'
p982
I0
sS'primary_provider'
p983
I00
sS'prefs'
p984
I00
sS'name'
p985
S'Plex Theme Music'
p986
sass.